target datalayout = "e-m:e-p270:32:32-p271:32:32-p272:64:64-i64:64-i128:128-f80:128-n8:16:32:64-S128"
target triple = "x86_64-unknown-linux-gnu"

%"class.smt::eq_justification" = type { ptr }
%"class.smt::model_value_dependency" = type { i8, %union.anon }
%union.anon = type { ptr }
%"struct.smt::extra_fresh_value" = type { ptr, i32, ptr }
%"class.smt::enode" = type { ptr, ptr, ptr, ptr, i32, i32, i32, i16, i32, i8, i8, %class.ptr_vector, %class.id_var_list, %"struct.smt::trans_justification", %class.approx_set, %class.approx_set, [0 x ptr] }
%class.ptr_vector = type { %class.vector }
%class.vector = type { ptr }
%class.id_var_list = type { i32, ptr }
%"struct.smt::trans_justification" = type { ptr, %"class.smt::eq_justification" }
%class.approx_set = type { %class.approx_set_tpl }
%class.approx_set_tpl = type { i64 }
%class.ast = type { i32, i24, i32, i32 }

@.str = private unnamed_addr constant [7 x i8] c"fresh!\00", align 1
@.str.7 = private unnamed_addr constant [2 x i8] c"#\00", align 1

; Function Attrs: mustprogress nounwind uwtable
define linkonce_odr hidden noundef i32 @_ZNK3ast6get_idEv(ptr noundef nonnull align 4 dereferenceable(16) %this) #4 comdat align 2 {
entry:
  %this.addr = alloca ptr, align 8
  store ptr %this, ptr %this.addr, align 8
  %this1 = load ptr, ptr %this.addr, align 8
  %m_id = getelementptr inbounds %class.ast, ptr %this1, i32 0, i32 0
  %0 = load i32, ptr %m_id, align 4
  ret i32 %0
}

; Function Attrs: mustprogress uwtable
define linkonce_odr hidden noundef i32 @_ZNK3smt5enode12get_owner_idEv(ptr noundef nonnull align 8 dereferenceable(112) %this) #5 comdat align 2 {
entry:
  %this.addr = alloca ptr, align 8
  store ptr %this, ptr %this.addr, align 8
  %this1 = load ptr, ptr %this.addr, align 8
  %m_owner = getelementptr inbounds %"class.smt::enode", ptr %this1, i32 0, i32 0
  %0 = load ptr, ptr %m_owner, align 8
  %call = call noundef i32 @_ZNK3ast6get_idEv(ptr noundef nonnull align 4 dereferenceable(16) %0)
  ret i32 %call
}

; Function Attrs: mustprogress nounwind uwtable
define linkonce_odr hidden noundef ptr @_ZNK3smt22model_value_dependency9get_enodeEv(ptr noundef nonnull align 8 dereferenceable(16) %this) #4 comdat align 2 {
entry:
  %this.addr = alloca ptr, align 8
  store ptr %this, ptr %this.addr, align 8
  %this1 = load ptr, ptr %this.addr, align 8
  %0 = getelementptr inbounds %"class.smt::model_value_dependency", ptr %this1, i32 0, i32 1
  %1 = load ptr, ptr %0, align 8
  ret ptr %1
}

; Function Attrs: mustprogress nounwind uwtable
define linkonce_odr hidden noundef i32 @_ZNK3smt17extra_fresh_value7get_idxEv(ptr noundef nonnull align 8 dereferenceable(24) %this) #4 comdat align 2 {
entry:
  %this.addr = alloca ptr, align 8
  store ptr %this, ptr %this.addr, align 8
  %this1 = load ptr, ptr %this.addr, align 8
  %m_idx = getelementptr inbounds %"struct.smt::extra_fresh_value", ptr %this1, i32 0, i32 1
  %0 = load i32, ptr %m_idx, align 8
  ret i32 %0
}

; Function Attrs: mustprogress nounwind uwtable
define linkonce_odr hidden noundef ptr @_ZNK3smt22model_value_dependency9get_valueEv(ptr noundef nonnull align 8 dereferenceable(16) %this) #4 comdat align 2 {
entry:
  %this.addr = alloca ptr, align 8
  store ptr %this, ptr %this.addr, align 8
  %this1 = load ptr, ptr %this.addr, align 8
  %0 = getelementptr inbounds %"class.smt::model_value_dependency", ptr %this1, i32 0, i32 1
  %1 = load ptr, ptr %0, align 8
  ret ptr %1
}

; Function Attrs: mustprogress nounwind uwtable
define linkonce_odr hidden noundef zeroext i1 @_ZNK3smt22model_value_dependency14is_fresh_valueEv(ptr noundef nonnull align 8 dereferenceable(16) %this) #4 comdat align 2 {
entry:
  %this.addr = alloca ptr, align 8
  store ptr %this, ptr %this.addr, align 8
  %this1 = load ptr, ptr %this.addr, align 8
  %m_fresh = getelementptr inbounds %"class.smt::model_value_dependency", ptr %this1, i32 0, i32 0
  %0 = load i8, ptr %m_fresh, align 8
  %tobool = trunc i8 %0 to i1
  ret i1 %tobool
}

; Function Attrs: mustprogress uwtable
define hidden noundef nonnull align 8 dereferenceable(8) ptr @_ZN3smtlsERSoRKNS_22model_value_dependencyE(ptr noundef nonnull align 8 dereferenceable(8) %out, ptr noundef nonnull align 8 dereferenceable(16) %src) #5 {
entry:
  %retval = alloca ptr, align 8
  %out.addr = alloca ptr, align 8
  %src.addr = alloca ptr, align 8
  store ptr %out, ptr %out.addr, align 8
  store ptr %src, ptr %src.addr, align 8
  %0 = load ptr, ptr %src.addr, align 8
  %call = call noundef zeroext i1 @_ZNK3smt22model_value_dependency14is_fresh_valueEv(ptr noundef nonnull align 8 dereferenceable(16) %0)
  br i1 %call, label %if.then, label %if.else

if.then:                                          ; preds = %entry
  %1 = load ptr, ptr %out.addr, align 8
  %call1 = call noundef nonnull align 8 dereferenceable(8) ptr @_ZStlsISt11char_traitsIcEERSt13basic_ostreamIcT_ES5_PKc(ptr noundef nonnull align 8 dereferenceable(8) %1, ptr noundef @.str)
  %2 = load ptr, ptr %src.addr, align 8
  %call2 = call noundef ptr @_ZNK3smt22model_value_dependency9get_valueEv(ptr noundef nonnull align 8 dereferenceable(16) %2)
  %call3 = call noundef i32 @_ZNK3smt17extra_fresh_value7get_idxEv(ptr noundef nonnull align 8 dereferenceable(24) %call2)
  %call4 = call noundef nonnull align 8 dereferenceable(8) ptr @_ZNSolsEj(ptr noundef nonnull align 8 dereferenceable(8) %call1, i32 noundef %call3)
  store ptr %call4, ptr %retval, align 8
  br label %return

if.else:                                          ; preds = %entry
  %3 = load ptr, ptr %out.addr, align 8
  %call5 = call noundef nonnull align 8 dereferenceable(8) ptr @_ZStlsISt11char_traitsIcEERSt13basic_ostreamIcT_ES5_PKc(ptr noundef nonnull align 8 dereferenceable(8) %3, ptr noundef @.str.7)
  %4 = load ptr, ptr %src.addr, align 8
  %call6 = call noundef ptr @_ZNK3smt22model_value_dependency9get_enodeEv(ptr noundef nonnull align 8 dereferenceable(16) %4)
  %call7 = call noundef i32 @_ZNK3smt5enode12get_owner_idEv(ptr noundef nonnull align 8 dereferenceable(112) %call6)
  %call8 = call noundef nonnull align 8 dereferenceable(8) ptr @_ZNSolsEj(ptr noundef nonnull align 8 dereferenceable(8) %call5, i32 noundef %call7)
  store ptr %call8, ptr %retval, align 8
  br label %return

return:                                           ; preds = %if.else, %if.then
  %5 = load ptr, ptr %retval, align 8
  ret ptr %5
}