; Function Attrs: mustprogress uwtable
define hidden noundef nonnull align 8 dereferenceable(8) ptr @_ZN3smtlsERSoRKNS_22model_value_dependencyE(ptr noundef nonnull align 8 dereferenceable(8) %out, ptr nocapture noundef nonnull readonly align 8 dereferenceable(16) %src) local_unnamed_addr #3 {
entry:
  %0 = load i8, ptr %src, align 8
  %1 = and i8 %0, 1
  %tobool.i.not = icmp eq i8 %1, 0
  %2 = getelementptr inbounds i8, ptr %src, i64 8
  br i1 %tobool.i.not, label %if.else, label %if.then

if.then:                                          ; preds = %entry
  %call1 = tail call noundef nonnull align 8 dereferenceable(8) ptr @_ZStlsISt11char_traitsIcEERSt13basic_ostreamIcT_ES5_PKc(ptr noundef nonnull align 8 dereferenceable(8) %out, ptr noundef nonnull @.str)
  %3 = load ptr, ptr %2, align 8
  %m_idx.i = getelementptr inbounds i8, ptr %3, i64 8
  %4 = load i32, ptr %m_idx.i, align 8
  %call4 = tail call noundef nonnull align 8 dereferenceable(8) ptr @_ZNSolsEj(ptr noundef nonnull align 8 dereferenceable(8) %call1, i32 noundef %4)
  br label %return

if.else:                                          ; preds = %entry
  %call5 = tail call noundef nonnull align 8 dereferenceable(8) ptr @_ZStlsISt11char_traitsIcEERSt13basic_ostreamIcT_ES5_PKc(ptr noundef nonnull align 8 dereferenceable(8) %out, ptr noundef nonnull @.str.7)
  %5 = load ptr, ptr %2, align 8
  %6 = load ptr, ptr %5, align 8
  %7 = load i32, ptr %6, align 4
  %call8 = tail call noundef nonnull align 8 dereferenceable(8) ptr @_ZNSolsEj(ptr noundef nonnull align 8 dereferenceable(8) %call5, i32 noundef %7)
  br label %return

return:                                           ; preds = %if.else, %if.then
  %retval.0 = phi ptr [ %call4, %if.then ], [ %call8, %if.else ]
  ret ptr %retval.0
}